; Function Attrs: nounwind uwtable
define dso_local void @CloseArchive(ptr noundef %0) local_unnamed_addr #0 {
  %2 = getelementptr inbounds nuw i8, ptr %0, i64 280
  %3 = load ptr, ptr %2, align 8
  tail call void %3(ptr noundef %0) #22
  %4 = tail call ptr @__errno_location() #25
  store i32 0, ptr %4, align 4
  %5 = getelementptr inbounds nuw i8, ptr %0, i64 496
  %6 = load ptr, ptr %5, align 8
  %7 = tail call zeroext i1 @EndCompressFileHandle(ptr noundef %6) #22
  br i1 %7, label %9, label %8

8:                                                ; preds = %1
  tail call void (i32, i32, ptr, ...) @pg_log_generic(i32 noundef 4, i32 noundef 0, ptr noundef nonnull @.str) #22
  tail call void @exit_nicely(i32 noundef 1) #23
  unreachable

9:                                                ; preds = %1
  ret void
}